
a.out:     file format elf32-tradbigmips

Sections:
Idx Name          Size      VMA       LMA       File off  Algn
  0 .text         00000080  00000000  00000000  00000074  2**2
                  CONTENTS, ALLOC, LOAD, READONLY, CODE
  1 .data         00000bb8  00001000  00001000  00001074  2**0
                  CONTENTS, ALLOC, LOAD, DATA
  2 .ktext        00000048  80000080  80000080  00001c2c  2**0
                  CONTENTS, ALLOC, LOAD, READONLY, CODE
  3 .bss          00000000  800000c8  800000c8  00001c74  2**0
                  ALLOC
  4 .kdata        00000028  80001000  80001000  00001c74  2**2
                  CONTENTS, READONLY
  5 .reginfo      00000018  00000000  00000000  00001c9c  2**2
                  CONTENTS, READONLY, LINK_ONCE_SAME_SIZE
  6 .pdr          00000000  00000000  00000000  00001cb4  2**2
                  CONTENTS, READONLY
SYMBOL TABLE:
00000000 l    d  .text	00000000 .text
00001000 l    d  .data	00000000 .data
80000080 l    d  .ktext	00000000 .ktext
800000c8 l    d  .bss	00000000 .bss
80001000 l    d  .kdata	00000000 .kdata
00000000 l    d  .reginfo	00000000 .reginfo
00000000 l    d  .pdr	00000000 .pdr
00000000 l    d  *ABS*	00000000 .shstrtab
00000000 l    d  *ABS*	00000000 .symtab
00000000 l    d  *ABS*	00000000 .strtab
00001000 l       .data	00000000 glob1
000013e8 l       .data	00000000 glob2
000017d0 l       .data	00000000 glob3
00000000 l       .text	00000000 main
0000003c l       .text	00000000 proc1
00000060 l       .text	00000000 proc1_loop
00000070 l       .text	00000000 proc2
00000078 l       .text	00000000 proc3
80001000 l       .kdata	00000000 curpcb
80001004 l       .kdata	00000000 pcb1
80001010 l       .kdata	00000000 pcb2
8000101c l       .kdata	00000000 pcb3
80000080 l       .ktext	00000000 exception_handler
800000c0 l       .ktext	00000000 kernel_loop
800000ac l       .ktext	00000000 return_from_exception
00000000 g       *ABS*	00000000 __start


Contents of section .text:
 0000 3c08ffff 35080010 24090000 ad090004  <...5...$.......
 0010 2409003f ad090008 24090029 ad090000  $..?....$..)....
 0020 3c08ffff 24090002 ad090000 24080003  <...$.......$...
 0030 40886000 3c1c0000 279c1000 83840000  @.`.<...'.......
 0040 24020102 0000000c 00000000 2401005a  $...........$..Z
 0050 10810003 24840001 0800000f a3840000  ....$...........
 0060 24040041 a3840000 0800000f 00000000  $..A............
 0070 0800001c 00000000 0800001e 00000000  ................
Contents of section .data:
 1000 41000000 00000000 00000000 00000000  A...............
 1010 00000000 00000000 00000000 00000000  ................
 1020 00000000 00000000 00000000 00000000  ................
 1030 00000000 00000000 00000000 00000000  ................
 1040 00000000 00000000 00000000 00000000  ................
 1050 00000000 00000000 00000000 00000000  ................
 1060 00000000 00000000 00000000 00000000  ................
 1070 00000000 00000000 00000000 00000000  ................
 1080 00000000 00000000 00000000 00000000  ................
 1090 00000000 00000000 00000000 00000000  ................
 10a0 00000000 00000000 00000000 00000000  ................
 10b0 00000000 00000000 00000000 00000000  ................
 10c0 00000000 00000000 00000000 00000000  ................
 10d0 00000000 00000000 00000000 00000000  ................
 10e0 00000000 00000000 00000000 00000000  ................
 10f0 00000000 00000000 00000000 00000000  ................
 1100 00000000 00000000 00000000 00000000  ................
 1110 00000000 00000000 00000000 00000000  ................
 1120 00000000 00000000 00000000 00000000  ................
 1130 00000000 00000000 00000000 00000000  ................
 1140 00000000 00000000 00000000 00000000  ................
 1150 00000000 00000000 00000000 00000000  ................
 1160 00000000 00000000 00000000 00000000  ................
 1170 00000000 00000000 00000000 00000000  ................
 1180 00000000 00000000 00000000 00000000  ................
 1190 00000000 00000000 00000000 00000000  ................
 11a0 00000000 00000000 00000000 00000000  ................
 11b0 00000000 00000000 00000000 00000000  ................
 11c0 00000000 00000000 00000000 00000000  ................
 11d0 00000000 00000000 00000000 00000000  ................
 11e0 00000000 00000000 00000000 00000000  ................
 11f0 00000000 00000000 00000000 00000000  ................
 1200 00000000 00000000 00000000 00000000  ................
 1210 00000000 00000000 00000000 00000000  ................
 1220 00000000 00000000 00000000 00000000  ................
 1230 00000000 00000000 00000000 00000000  ................
 1240 00000000 00000000 00000000 00000000  ................
 1250 00000000 00000000 00000000 00000000  ................
 1260 00000000 00000000 00000000 00000000  ................
 1270 00000000 00000000 00000000 00000000  ................
 1280 00000000 00000000 00000000 00000000  ................
 1290 00000000 00000000 00000000 00000000  ................
 12a0 00000000 00000000 00000000 00000000  ................
 12b0 00000000 00000000 00000000 00000000  ................
 12c0 00000000 00000000 00000000 00000000  ................
 12d0 00000000 00000000 00000000 00000000  ................
 12e0 00000000 00000000 00000000 00000000  ................
 12f0 00000000 00000000 00000000 00000000  ................
 1300 00000000 00000000 00000000 00000000  ................
 1310 00000000 00000000 00000000 00000000  ................
 1320 00000000 00000000 00000000 00000000  ................
 1330 00000000 00000000 00000000 00000000  ................
 1340 00000000 00000000 00000000 00000000  ................
 1350 00000000 00000000 00000000 00000000  ................
 1360 00000000 00000000 00000000 00000000  ................
 1370 00000000 00000000 00000000 00000000  ................
 1380 00000000 00000000 00000000 00000000  ................
 1390 00000000 00000000 00000000 00000000  ................
 13a0 00000000 00000000 00000000 00000000  ................
 13b0 00000000 00000000 00000000 00000000  ................
 13c0 00000000 00000000 00000000 00000000  ................
 13d0 00000000 00000000 00000000 00000000  ................
 13e0 00000000 00000000 30000000 00000000  ........0.......
 13f0 00000000 00000000 00000000 00000000  ................
 1400 00000000 00000000 00000000 00000000  ................
 1410 00000000 00000000 00000000 00000000  ................
 1420 00000000 00000000 00000000 00000000  ................
 1430 00000000 00000000 00000000 00000000  ................
 1440 00000000 00000000 00000000 00000000  ................
 1450 00000000 00000000 00000000 00000000  ................
 1460 00000000 00000000 00000000 00000000  ................
 1470 00000000 00000000 00000000 00000000  ................
 1480 00000000 00000000 00000000 00000000  ................
 1490 00000000 00000000 00000000 00000000  ................
 14a0 00000000 00000000 00000000 00000000  ................
 14b0 00000000 00000000 00000000 00000000  ................
 14c0 00000000 00000000 00000000 00000000  ................
 14d0 00000000 00000000 00000000 00000000  ................
 14e0 00000000 00000000 00000000 00000000  ................
 14f0 00000000 00000000 00000000 00000000  ................
 1500 00000000 00000000 00000000 00000000  ................
 1510 00000000 00000000 00000000 00000000  ................
 1520 00000000 00000000 00000000 00000000  ................
 1530 00000000 00000000 00000000 00000000  ................
 1540 00000000 00000000 00000000 00000000  ................
 1550 00000000 00000000 00000000 00000000  ................
 1560 00000000 00000000 00000000 00000000  ................
 1570 00000000 00000000 00000000 00000000  ................
 1580 00000000 00000000 00000000 00000000  ................
 1590 00000000 00000000 00000000 00000000  ................
 15a0 00000000 00000000 00000000 00000000  ................
 15b0 00000000 00000000 00000000 00000000  ................
 15c0 00000000 00000000 00000000 00000000  ................
 15d0 00000000 00000000 00000000 00000000  ................
 15e0 00000000 00000000 00000000 00000000  ................
 15f0 00000000 00000000 00000000 00000000  ................
 1600 00000000 00000000 00000000 00000000  ................
 1610 00000000 00000000 00000000 00000000  ................
 1620 00000000 00000000 00000000 00000000  ................
 1630 00000000 00000000 00000000 00000000  ................
 1640 00000000 00000000 00000000 00000000  ................
 1650 00000000 00000000 00000000 00000000  ................
 1660 00000000 00000000 00000000 00000000  ................
 1670 00000000 00000000 00000000 00000000  ................
 1680 00000000 00000000 00000000 00000000  ................
 1690 00000000 00000000 00000000 00000000  ................
 16a0 00000000 00000000 00000000 00000000  ................
 16b0 00000000 00000000 00000000 00000000  ................
 16c0 00000000 00000000 00000000 00000000  ................
 16d0 00000000 00000000 00000000 00000000  ................
 16e0 00000000 00000000 00000000 00000000  ................
 16f0 00000000 00000000 00000000 00000000  ................
 1700 00000000 00000000 00000000 00000000  ................
 1710 00000000 00000000 00000000 00000000  ................
 1720 00000000 00000000 00000000 00000000  ................
 1730 00000000 00000000 00000000 00000000  ................
 1740 00000000 00000000 00000000 00000000  ................
 1750 00000000 00000000 00000000 00000000  ................
 1760 00000000 00000000 00000000 00000000  ................
 1770 00000000 00000000 00000000 00000000  ................
 1780 00000000 00000000 00000000 00000000  ................
 1790 00000000 00000000 00000000 00000000  ................
 17a0 00000000 00000000 00000000 00000000  ................
 17b0 00000000 00000000 00000000 00000000  ................
 17c0 00000000 00000000 00000000 00000000  ................
 17d0 61000000 00000000 00000000 00000000  a...............
 17e0 00000000 00000000 00000000 00000000  ................
 17f0 00000000 00000000 00000000 00000000  ................
 1800 00000000 00000000 00000000 00000000  ................
 1810 00000000 00000000 00000000 00000000  ................
 1820 00000000 00000000 00000000 00000000  ................
 1830 00000000 00000000 00000000 00000000  ................
 1840 00000000 00000000 00000000 00000000  ................
 1850 00000000 00000000 00000000 00000000  ................
 1860 00000000 00000000 00000000 00000000  ................
 1870 00000000 00000000 00000000 00000000  ................
 1880 00000000 00000000 00000000 00000000  ................
 1890 00000000 00000000 00000000 00000000  ................
 18a0 00000000 00000000 00000000 00000000  ................
 18b0 00000000 00000000 00000000 00000000  ................
 18c0 00000000 00000000 00000000 00000000  ................
 18d0 00000000 00000000 00000000 00000000  ................
 18e0 00000000 00000000 00000000 00000000  ................
 18f0 00000000 00000000 00000000 00000000  ................
 1900 00000000 00000000 00000000 00000000  ................
 1910 00000000 00000000 00000000 00000000  ................
 1920 00000000 00000000 00000000 00000000  ................
 1930 00000000 00000000 00000000 00000000  ................
 1940 00000000 00000000 00000000 00000000  ................
 1950 00000000 00000000 00000000 00000000  ................
 1960 00000000 00000000 00000000 00000000  ................
 1970 00000000 00000000 00000000 00000000  ................
 1980 00000000 00000000 00000000 00000000  ................
 1990 00000000 00000000 00000000 00000000  ................
 19a0 00000000 00000000 00000000 00000000  ................
 19b0 00000000 00000000 00000000 00000000  ................
 19c0 00000000 00000000 00000000 00000000  ................
 19d0 00000000 00000000 00000000 00000000  ................
 19e0 00000000 00000000 00000000 00000000  ................
 19f0 00000000 00000000 00000000 00000000  ................
 1a00 00000000 00000000 00000000 00000000  ................
 1a10 00000000 00000000 00000000 00000000  ................
 1a20 00000000 00000000 00000000 00000000  ................
 1a30 00000000 00000000 00000000 00000000  ................
 1a40 00000000 00000000 00000000 00000000  ................
 1a50 00000000 00000000 00000000 00000000  ................
 1a60 00000000 00000000 00000000 00000000  ................
 1a70 00000000 00000000 00000000 00000000  ................
 1a80 00000000 00000000 00000000 00000000  ................
 1a90 00000000 00000000 00000000 00000000  ................
 1aa0 00000000 00000000 00000000 00000000  ................
 1ab0 00000000 00000000 00000000 00000000  ................
 1ac0 00000000 00000000 00000000 00000000  ................
 1ad0 00000000 00000000 00000000 00000000  ................
 1ae0 00000000 00000000 00000000 00000000  ................
 1af0 00000000 00000000 00000000 00000000  ................
 1b00 00000000 00000000 00000000 00000000  ................
 1b10 00000000 00000000 00000000 00000000  ................
 1b20 00000000 00000000 00000000 00000000  ................
 1b30 00000000 00000000 00000000 00000000  ................
 1b40 00000000 00000000 00000000 00000000  ................
 1b50 00000000 00000000 00000000 00000000  ................
 1b60 00000000 00000000 00000000 00000000  ................
 1b70 00000000 00000000 00000000 00000000  ................
 1b80 00000000 00000000 00000000 00000000  ................
 1b90 00000000 00000000 00000000 00000000  ................
 1ba0 00000000 00000000 00000000 00000000  ................
 1bb0 00000000 00000000                    ........        
Contents of section .ktext:
 80000080 401a6800 241b0008 001ad082 335a000f  @.h.$.......3Z..
 80000090 177a000b 00000000 241b0102 145b0003  .z......$....[..
 800000a0 00000000 3c1affff a3440008 401a7000  ....<....D..@.p.
 800000b0 00000000 275a0004 03400008 42000010  ....'Z...@..B...
 800000c0 1000ffff 00000000                    ........        
Contents of section .kdata:
 80001000 80001004 00000000 00000000 00000000  ................
 80001010 00000070 000013e8 7fffbf94 00000078  ...p...........x
 80001020 000017d0 7fff7f94                    ........        
Contents of section .reginfo:
 0000 1c000316 00000000 00000000 00000000  ................
 0010 00000000 00000000                    ........        
Disassembly of section .text:

00000000 <main>:
   0:	3c08ffff 	lui	t0,0xffff
   4:	35080010 	ori	t0,t0,0x10
   8:	24090000 	li	t1,0
   c:	ad090004 	sw	t1,4(t0)
  10:	2409003f 	li	t1,63
  14:	ad090008 	sw	t1,8(t0)
  18:	24090029 	li	t1,41
  1c:	ad090000 	sw	t1,0(t0)
  20:	3c08ffff 	lui	t0,0xffff
  24:	24090002 	li	t1,2
  28:	ad090000 	sw	t1,0(t0)
  2c:	24080003 	li	t0,3
  30:	40886000 	mtc0	t0,$12
  34:	3c1c0000 	lui	gp,0x0
  38:	279c1000 	addiu	gp,gp,4096

0000003c <proc1>:
  3c:	83840000 	lb	a0,0(gp)
  40:	24020102 	li	v0,258
  44:	0000000c 	syscall
  48:	00000000 	nop
  4c:	2401005a 	li	at,90
  50:	10810003 	beq	a0,at,60 <proc1_loop>
  54:	24840001 	addiu	a0,a0,1
  58:	0800000f 	j	3c <proc1>
  5c:	a3840000 	sb	a0,0(gp)

00000060 <proc1_loop>:
  60:	24040041 	li	a0,65
  64:	a3840000 	sb	a0,0(gp)
  68:	0800000f 	j	3c <proc1>
  6c:	00000000 	nop

00000070 <proc2>:
  70:	0800001c 	j	70 <proc2>
  74:	00000000 	nop

00000078 <proc3>:
  78:	0800001e 	j	78 <proc3>
  7c:	00000000 	nop
Disassembly of section .ktext:

80000080 <exception_handler>:
80000080:	401a6800 	mfc0	k0,$13
80000084:	241b0008 	li	k1,8
80000088:	001ad082 	srl	k0,k0,0x2
8000008c:	335a000f 	andi	k0,k0,0xf
80000090:	177a000b 	bne	k1,k0,800000c0 <kernel_loop>
80000094:	00000000 	nop
80000098:	241b0102 	li	k1,258
8000009c:	145b0003 	bne	v0,k1,800000ac <return_from_exception>
800000a0:	00000000 	nop
800000a4:	3c1affff 	lui	k0,0xffff
800000a8:	a3440008 	sb	a0,8(k0)

800000ac <return_from_exception>:
800000ac:	401a7000 	mfc0	k0,$14
800000b0:	00000000 	nop
800000b4:	275a0004 	addiu	k0,k0,4
800000b8:	03400008 	jr	k0
800000bc:	42000010 	rfe

800000c0 <kernel_loop>:
800000c0:	1000ffff 	b	800000c0 <kernel_loop>
800000c4:	00000000 	nop
