
a.out:     file format elf32-tradbigmips

Sections:
Idx Name          Size      VMA       LMA       File off  Algn
  0 .text         000000dc  00000000  00000000  00000074  2**2
                  CONTENTS, ALLOC, LOAD, READONLY, CODE
  1 .data         00000bb8  00001000  00001000  00001074  2**0
                  CONTENTS, ALLOC, LOAD, DATA
  2 .ktext        00000218  80000080  80000080  00001c2c  2**0
                  CONTENTS, ALLOC, LOAD, READONLY, CODE
  3 .bss          00000000  80000298  80000298  00001e44  2**0
                  ALLOC
  4 .kdata        00000028  80001000  80001000  00001e44  2**2
                  CONTENTS, READONLY
  5 .reginfo      00000018  00000000  00000000  00001e6c  2**2
                  CONTENTS, READONLY, LINK_ONCE_SAME_SIZE
  6 .pdr          00000000  00000000  00000000  00001e84  2**2
                  CONTENTS, READONLY
SYMBOL TABLE:
00000000 l    d  .text	00000000 .text
00001000 l    d  .data	00000000 .data
80000080 l    d  .ktext	00000000 .ktext
80000298 l    d  .bss	00000000 .bss
80001000 l    d  .kdata	00000000 .kdata
00000000 l    d  .reginfo	00000000 .reginfo
00000000 l    d  .pdr	00000000 .pdr
00000000 l    d  *ABS*	00000000 .shstrtab
00000000 l    d  *ABS*	00000000 .symtab
00000000 l    d  *ABS*	00000000 .strtab
00001000 l       .data	00000000 glob1
000013e8 l       .data	00000000 glob2
000017d0 l       .data	00000000 glob3
00000000 l       .text	00000000 main
00000040 l       .text	00000000 proc1
00000064 l       .text	00000000 proc1_loop
00000074 l       .text	00000000 proc2
00000098 l       .text	00000000 proc2_loop
000000a8 l       .text	00000000 proc3
000000cc l       .text	00000000 proc3_loop
80001000 l       .kdata	00000000 curpcb
80001004 l       .kdata	00000000 pcb1
80001010 l       .kdata	00000000 pcb2
8000101c l       .kdata	00000000 pcb3
80000080 l       .ktext	00000000 exception_handler
800000a8 l       .ktext	00000000 syscall_handler
800000d8 l       .ktext	00000000 int_handler
80000290 l       .ktext	00000000 kernel_loop
800000bc l       .ktext	00000000 output
800000c4 l       .ktext	00000000 return_from_exception
800000f8 l       .ktext	00000000 store_stack
800001dc l       .ktext	00000000 store_pcb2
800001f8 l       .ktext	00000000 store_pcb3
800001c0 l       .ktext	00000000 store_pcb1
80000214 l       .ktext	00000000 restore_stack
00000000 g       *ABS*	00000000 __start


Contents of section .text:
 0000 3c08ffff 35080010 24090000 ad090004  <...5...$.......
 0010 2409003f ad090008 24090029 ad090000  $..?....$..)....
 0020 3c08ffff 24090002 ad090000 24080c03  <...$.......$...
 0030 40886000 3c1c0000 279c1000 00000000  @.`.<...'.......
 0040 83840000 24020102 0000000c 00000000  ....$...........
 0050 2401005a 10810003 24840001 08000010  $..Z....$.......
 0060 a3840000 24040041 a3840000 08000010  ....$..A........
 0070 00000000 83840000 24020102 0000000c  ........$.......
 0080 00000000 24010039 10810003 24840001  ....$..9....$...
 0090 0800001d a3840000 24040030 a3840000  ........$..0....
 00a0 0800001d 00000000 83840000 24020102  ............$...
 00b0 0000000c 00000000 2401007a 10810003  ........$..z....
 00c0 24840001 0800002a a3840000 24040061  $......*....$..a
 00d0 a3840000 0800002a 00000000           .......*....    
Contents of section .data:
 1000 41000000 00000000 00000000 00000000  A...............
 1010 00000000 00000000 00000000 00000000  ................
 1020 00000000 00000000 00000000 00000000  ................
 1030 00000000 00000000 00000000 00000000  ................
 1040 00000000 00000000 00000000 00000000  ................
 1050 00000000 00000000 00000000 00000000  ................
 1060 00000000 00000000 00000000 00000000  ................
 1070 00000000 00000000 00000000 00000000  ................
 1080 00000000 00000000 00000000 00000000  ................
 1090 00000000 00000000 00000000 00000000  ................
 10a0 00000000 00000000 00000000 00000000  ................
 10b0 00000000 00000000 00000000 00000000  ................
 10c0 00000000 00000000 00000000 00000000  ................
 10d0 00000000 00000000 00000000 00000000  ................
 10e0 00000000 00000000 00000000 00000000  ................
 10f0 00000000 00000000 00000000 00000000  ................
 1100 00000000 00000000 00000000 00000000  ................
 1110 00000000 00000000 00000000 00000000  ................
 1120 00000000 00000000 00000000 00000000  ................
 1130 00000000 00000000 00000000 00000000  ................
 1140 00000000 00000000 00000000 00000000  ................
 1150 00000000 00000000 00000000 00000000  ................
 1160 00000000 00000000 00000000 00000000  ................
 1170 00000000 00000000 00000000 00000000  ................
 1180 00000000 00000000 00000000 00000000  ................
 1190 00000000 00000000 00000000 00000000  ................
 11a0 00000000 00000000 00000000 00000000  ................
 11b0 00000000 00000000 00000000 00000000  ................
 11c0 00000000 00000000 00000000 00000000  ................
 11d0 00000000 00000000 00000000 00000000  ................
 11e0 00000000 00000000 00000000 00000000  ................
 11f0 00000000 00000000 00000000 00000000  ................
 1200 00000000 00000000 00000000 00000000  ................
 1210 00000000 00000000 00000000 00000000  ................
 1220 00000000 00000000 00000000 00000000  ................
 1230 00000000 00000000 00000000 00000000  ................
 1240 00000000 00000000 00000000 00000000  ................
 1250 00000000 00000000 00000000 00000000  ................
 1260 00000000 00000000 00000000 00000000  ................
 1270 00000000 00000000 00000000 00000000  ................
 1280 00000000 00000000 00000000 00000000  ................
 1290 00000000 00000000 00000000 00000000  ................
 12a0 00000000 00000000 00000000 00000000  ................
 12b0 00000000 00000000 00000000 00000000  ................
 12c0 00000000 00000000 00000000 00000000  ................
 12d0 00000000 00000000 00000000 00000000  ................
 12e0 00000000 00000000 00000000 00000000  ................
 12f0 00000000 00000000 00000000 00000000  ................
 1300 00000000 00000000 00000000 00000000  ................
 1310 00000000 00000000 00000000 00000000  ................
 1320 00000000 00000000 00000000 00000000  ................
 1330 00000000 00000000 00000000 00000000  ................
 1340 00000000 00000000 00000000 00000000  ................
 1350 00000000 00000000 00000000 00000000  ................
 1360 00000000 00000000 00000000 00000000  ................
 1370 00000000 00000000 00000000 00000000  ................
 1380 00000000 00000000 00000000 00000000  ................
 1390 00000000 00000000 00000000 00000000  ................
 13a0 00000000 00000000 00000000 00000000  ................
 13b0 00000000 00000000 00000000 00000000  ................
 13c0 00000000 00000000 00000000 00000000  ................
 13d0 00000000 00000000 00000000 00000000  ................
 13e0 00000000 00000000 30000000 00000000  ........0.......
 13f0 00000000 00000000 00000000 00000000  ................
 1400 00000000 00000000 00000000 00000000  ................
 1410 00000000 00000000 00000000 00000000  ................
 1420 00000000 00000000 00000000 00000000  ................
 1430 00000000 00000000 00000000 00000000  ................
 1440 00000000 00000000 00000000 00000000  ................
 1450 00000000 00000000 00000000 00000000  ................
 1460 00000000 00000000 00000000 00000000  ................
 1470 00000000 00000000 00000000 00000000  ................
 1480 00000000 00000000 00000000 00000000  ................
 1490 00000000 00000000 00000000 00000000  ................
 14a0 00000000 00000000 00000000 00000000  ................
 14b0 00000000 00000000 00000000 00000000  ................
 14c0 00000000 00000000 00000000 00000000  ................
 14d0 00000000 00000000 00000000 00000000  ................
 14e0 00000000 00000000 00000000 00000000  ................
 14f0 00000000 00000000 00000000 00000000  ................
 1500 00000000 00000000 00000000 00000000  ................
 1510 00000000 00000000 00000000 00000000  ................
 1520 00000000 00000000 00000000 00000000  ................
 1530 00000000 00000000 00000000 00000000  ................
 1540 00000000 00000000 00000000 00000000  ................
 1550 00000000 00000000 00000000 00000000  ................
 1560 00000000 00000000 00000000 00000000  ................
 1570 00000000 00000000 00000000 00000000  ................
 1580 00000000 00000000 00000000 00000000  ................
 1590 00000000 00000000 00000000 00000000  ................
 15a0 00000000 00000000 00000000 00000000  ................
 15b0 00000000 00000000 00000000 00000000  ................
 15c0 00000000 00000000 00000000 00000000  ................
 15d0 00000000 00000000 00000000 00000000  ................
 15e0 00000000 00000000 00000000 00000000  ................
 15f0 00000000 00000000 00000000 00000000  ................
 1600 00000000 00000000 00000000 00000000  ................
 1610 00000000 00000000 00000000 00000000  ................
 1620 00000000 00000000 00000000 00000000  ................
 1630 00000000 00000000 00000000 00000000  ................
 1640 00000000 00000000 00000000 00000000  ................
 1650 00000000 00000000 00000000 00000000  ................
 1660 00000000 00000000 00000000 00000000  ................
 1670 00000000 00000000 00000000 00000000  ................
 1680 00000000 00000000 00000000 00000000  ................
 1690 00000000 00000000 00000000 00000000  ................
 16a0 00000000 00000000 00000000 00000000  ................
 16b0 00000000 00000000 00000000 00000000  ................
 16c0 00000000 00000000 00000000 00000000  ................
 16d0 00000000 00000000 00000000 00000000  ................
 16e0 00000000 00000000 00000000 00000000  ................
 16f0 00000000 00000000 00000000 00000000  ................
 1700 00000000 00000000 00000000 00000000  ................
 1710 00000000 00000000 00000000 00000000  ................
 1720 00000000 00000000 00000000 00000000  ................
 1730 00000000 00000000 00000000 00000000  ................
 1740 00000000 00000000 00000000 00000000  ................
 1750 00000000 00000000 00000000 00000000  ................
 1760 00000000 00000000 00000000 00000000  ................
 1770 00000000 00000000 00000000 00000000  ................
 1780 00000000 00000000 00000000 00000000  ................
 1790 00000000 00000000 00000000 00000000  ................
 17a0 00000000 00000000 00000000 00000000  ................
 17b0 00000000 00000000 00000000 00000000  ................
 17c0 00000000 00000000 00000000 00000000  ................
 17d0 61000000 00000000 00000000 00000000  a...............
 17e0 00000000 00000000 00000000 00000000  ................
 17f0 00000000 00000000 00000000 00000000  ................
 1800 00000000 00000000 00000000 00000000  ................
 1810 00000000 00000000 00000000 00000000  ................
 1820 00000000 00000000 00000000 00000000  ................
 1830 00000000 00000000 00000000 00000000  ................
 1840 00000000 00000000 00000000 00000000  ................
 1850 00000000 00000000 00000000 00000000  ................
 1860 00000000 00000000 00000000 00000000  ................
 1870 00000000 00000000 00000000 00000000  ................
 1880 00000000 00000000 00000000 00000000  ................
 1890 00000000 00000000 00000000 00000000  ................
 18a0 00000000 00000000 00000000 00000000  ................
 18b0 00000000 00000000 00000000 00000000  ................
 18c0 00000000 00000000 00000000 00000000  ................
 18d0 00000000 00000000 00000000 00000000  ................
 18e0 00000000 00000000 00000000 00000000  ................
 18f0 00000000 00000000 00000000 00000000  ................
 1900 00000000 00000000 00000000 00000000  ................
 1910 00000000 00000000 00000000 00000000  ................
 1920 00000000 00000000 00000000 00000000  ................
 1930 00000000 00000000 00000000 00000000  ................
 1940 00000000 00000000 00000000 00000000  ................
 1950 00000000 00000000 00000000 00000000  ................
 1960 00000000 00000000 00000000 00000000  ................
 1970 00000000 00000000 00000000 00000000  ................
 1980 00000000 00000000 00000000 00000000  ................
 1990 00000000 00000000 00000000 00000000  ................
 19a0 00000000 00000000 00000000 00000000  ................
 19b0 00000000 00000000 00000000 00000000  ................
 19c0 00000000 00000000 00000000 00000000  ................
 19d0 00000000 00000000 00000000 00000000  ................
 19e0 00000000 00000000 00000000 00000000  ................
 19f0 00000000 00000000 00000000 00000000  ................
 1a00 00000000 00000000 00000000 00000000  ................
 1a10 00000000 00000000 00000000 00000000  ................
 1a20 00000000 00000000 00000000 00000000  ................
 1a30 00000000 00000000 00000000 00000000  ................
 1a40 00000000 00000000 00000000 00000000  ................
 1a50 00000000 00000000 00000000 00000000  ................
 1a60 00000000 00000000 00000000 00000000  ................
 1a70 00000000 00000000 00000000 00000000  ................
 1a80 00000000 00000000 00000000 00000000  ................
 1a90 00000000 00000000 00000000 00000000  ................
 1aa0 00000000 00000000 00000000 00000000  ................
 1ab0 00000000 00000000 00000000 00000000  ................
 1ac0 00000000 00000000 00000000 00000000  ................
 1ad0 00000000 00000000 00000000 00000000  ................
 1ae0 00000000 00000000 00000000 00000000  ................
 1af0 00000000 00000000 00000000 00000000  ................
 1b00 00000000 00000000 00000000 00000000  ................
 1b10 00000000 00000000 00000000 00000000  ................
 1b20 00000000 00000000 00000000 00000000  ................
 1b30 00000000 00000000 00000000 00000000  ................
 1b40 00000000 00000000 00000000 00000000  ................
 1b50 00000000 00000000 00000000 00000000  ................
 1b60 00000000 00000000 00000000 00000000  ................
 1b70 00000000 00000000 00000000 00000000  ................
 1b80 00000000 00000000 00000000 00000000  ................
 1b90 00000000 00000000 00000000 00000000  ................
 1ba0 00000000 00000000 00000000 00000000  ................
 1bb0 00000000 00000000                    ........        
Contents of section .ktext:
 80000080 401a6800 341b0008 001ad082 335a000f  @.h.4.......3Z..
 80000090 135b0005 00000000 1340000f 00000000  .[.......@......
 800000a0 1000007b 00000000 341a0102 13420003  ...{....4....B..
 800000b0 00000000 10000003 00000000 3c1affff  ............<...
 800000c0 af440008 401b7000 00000000 277b0004  .D..@.p.....'{..
 800000d0 03600008 42000010 401a6800 341b0001  .`..B...@.h.4...
 800000e0 001ad282 335a0001 135b0003 00000000  ....3Z...[......
 800000f0 10000067 00000000 3c1affff 375a0010  ...g....<...7Z..
 80000100 241b0029 af5b0000 3c1a8000 275a1000  $..).[..<...'Z..
 80000110 8f5a0000 401b7000 27bdff98 af5b0000  .Z..@.p.'....[..
 80000120 af5c0004 af5d0008 afa10064 afa20060  .\...].....d...`
 80000130 afa3005c afa40058 afa50054 afa60050  ...\...X...T...P
 80000140 afa7004c afa80048 afa90044 afaa0040  ...L...H...D...@
 80000150 afab003c afac0038 afad0034 afae0030  ...<...8...4...0
 80000160 afaf002c afb00028 afb10024 afb20020  ...,...(...$... 
 80000170 afb3001c afb40018 afb50014 afb60010  ................
 80000180 afb7000c afb80008 afb90004 afbf0000  ................
 80000190 3c1a8000 275a1000 8f5a0000 3c1b8000  <...'Z...Z..<...
 800001a0 277b1004 00000000 135b000c 00000000  '{.......[......
 800001b0 3c1b8000 277b1010 135b000f 00000000  <...'{...[......
 800001c0 3c1a8000 275a1000 3c1b8000 277b1004  <...'Z..<...'{..
 800001d0 af5b0000 1000000f 00000000 3c1a8000  .[..........<...
 800001e0 275a1000 3c1b8000 277b1010 af5b0000  'Z..<...'{...[..
 800001f0 10000008 00000000 3c1a8000 275a1000  ........<...'Z..
 80000200 3c1b8000 277b101c af5b0000 10000001  <...'{...[......
 80000210 00000000 8f7d0008 8f7a0000 8f7c0004  .....}...z...|..
 80000220 8fa10064 8fa20060 8fa3005c 8fa40058  ...d...`...\...X
 80000230 8fa50054 8fa60050 8fa7004c 8fa80048  ...T...P...L...H
 80000240 8fa90044 8faa0040 8fab003c 8fac0038  ...D...@...<...8
 80000250 8fad0034 8fae0030 8faf002c 8fb00028  ...4...0...,...(
 80000260 8fb10024 8fb20020 8fb3001c 8fb40018  ...$... ........
 80000270 8fb50014 8fb60010 8fb7000c 8fb80008  ................
 80000280 8fb90004 8fbf0000 03400008 42000010  .........@..B...
 80000290 1000ffff 00000000                    ........        
Contents of section .kdata:
 80001000 80001004 00000000 00000000 00000000  ................
 80001010 00000074 000013e8 7fffbf94 000000a8  ...t............
 80001020 000017d0 7fff7f94                    ........        
Contents of section .reginfo:
 0000 bffffffe 00000000 00000000 00000000  ................
 0010 00000000 00000000                    ........        
Disassembly of section .text:

00000000 <main>:
   0:	3c08ffff 	lui	t0,0xffff
   4:	35080010 	ori	t0,t0,0x10
   8:	24090000 	li	t1,0
   c:	ad090004 	sw	t1,4(t0)
  10:	2409003f 	li	t1,63
  14:	ad090008 	sw	t1,8(t0)
  18:	24090029 	li	t1,41
  1c:	ad090000 	sw	t1,0(t0)
  20:	3c08ffff 	lui	t0,0xffff
  24:	24090002 	li	t1,2
  28:	ad090000 	sw	t1,0(t0)
  2c:	24080c03 	li	t0,3075
  30:	40886000 	mtc0	t0,$12
  34:	3c1c0000 	lui	gp,0x0
  38:	279c1000 	addiu	gp,gp,4096
  3c:	00000000 	nop

00000040 <proc1>:
  40:	83840000 	lb	a0,0(gp)
  44:	24020102 	li	v0,258
  48:	0000000c 	syscall
  4c:	00000000 	nop
  50:	2401005a 	li	at,90
  54:	10810003 	beq	a0,at,64 <proc1_loop>
  58:	24840001 	addiu	a0,a0,1
  5c:	08000010 	j	40 <proc1>
  60:	a3840000 	sb	a0,0(gp)

00000064 <proc1_loop>:
  64:	24040041 	li	a0,65
  68:	a3840000 	sb	a0,0(gp)
  6c:	08000010 	j	40 <proc1>
  70:	00000000 	nop

00000074 <proc2>:
  74:	83840000 	lb	a0,0(gp)
  78:	24020102 	li	v0,258
  7c:	0000000c 	syscall
  80:	00000000 	nop
  84:	24010039 	li	at,57
  88:	10810003 	beq	a0,at,98 <proc2_loop>
  8c:	24840001 	addiu	a0,a0,1
  90:	0800001d 	j	74 <proc2>
  94:	a3840000 	sb	a0,0(gp)

00000098 <proc2_loop>:
  98:	24040030 	li	a0,48
  9c:	a3840000 	sb	a0,0(gp)
  a0:	0800001d 	j	74 <proc2>
  a4:	00000000 	nop

000000a8 <proc3>:
  a8:	83840000 	lb	a0,0(gp)
  ac:	24020102 	li	v0,258
  b0:	0000000c 	syscall
  b4:	00000000 	nop
  b8:	2401007a 	li	at,122
  bc:	10810003 	beq	a0,at,cc <proc3_loop>
  c0:	24840001 	addiu	a0,a0,1
  c4:	0800002a 	j	a8 <proc3>
  c8:	a3840000 	sb	a0,0(gp)

000000cc <proc3_loop>:
  cc:	24040061 	li	a0,97
  d0:	a3840000 	sb	a0,0(gp)
  d4:	0800002a 	j	a8 <proc3>
  d8:	00000000 	nop
Disassembly of section .ktext:

80000080 <exception_handler>:
80000080:	401a6800 	mfc0	k0,$13
80000084:	341b0008 	li	k1,0x8
80000088:	001ad082 	srl	k0,k0,0x2
8000008c:	335a000f 	andi	k0,k0,0xf
80000090:	135b0005 	beq	k0,k1,800000a8 <syscall_handler>
80000094:	00000000 	nop
80000098:	1340000f 	beqz	k0,800000d8 <int_handler>
8000009c:	00000000 	nop
800000a0:	1000007b 	b	80000290 <kernel_loop>
800000a4:	00000000 	nop

800000a8 <syscall_handler>:
800000a8:	341a0102 	li	k0,0x102
800000ac:	13420003 	beq	k0,v0,800000bc <output>
800000b0:	00000000 	nop
800000b4:	10000003 	b	800000c4 <return_from_exception>
800000b8:	00000000 	nop

800000bc <output>:
800000bc:	3c1affff 	lui	k0,0xffff
800000c0:	af440008 	sw	a0,8(k0)

800000c4 <return_from_exception>:
800000c4:	401b7000 	mfc0	k1,$14
800000c8:	00000000 	nop
800000cc:	277b0004 	addiu	k1,k1,4
800000d0:	03600008 	jr	k1
800000d4:	42000010 	rfe

800000d8 <int_handler>:
800000d8:	401a6800 	mfc0	k0,$13
800000dc:	341b0001 	li	k1,0x1
800000e0:	001ad282 	srl	k0,k0,0xa
800000e4:	335a0001 	andi	k0,k0,0x1
800000e8:	135b0003 	beq	k0,k1,800000f8 <store_stack>
800000ec:	00000000 	nop
800000f0:	10000067 	b	80000290 <kernel_loop>
800000f4:	00000000 	nop

800000f8 <store_stack>:
800000f8:	3c1affff 	lui	k0,0xffff
800000fc:	375a0010 	ori	k0,k0,0x10
80000100:	241b0029 	li	k1,41
80000104:	af5b0000 	sw	k1,0(k0)
80000108:	3c1a8000 	lui	k0,0x8000
8000010c:	275a1000 	addiu	k0,k0,4096
80000110:	8f5a0000 	lw	k0,0(k0)
80000114:	401b7000 	mfc0	k1,$14
80000118:	27bdff98 	addiu	sp,sp,-104
8000011c:	af5b0000 	sw	k1,0(k0)
80000120:	af5c0004 	sw	gp,4(k0)
80000124:	af5d0008 	sw	sp,8(k0)
80000128:	afa10064 	sw	at,100(sp)
8000012c:	afa20060 	sw	v0,96(sp)
80000130:	afa3005c 	sw	v1,92(sp)
80000134:	afa40058 	sw	a0,88(sp)
80000138:	afa50054 	sw	a1,84(sp)
8000013c:	afa60050 	sw	a2,80(sp)
80000140:	afa7004c 	sw	a3,76(sp)
80000144:	afa80048 	sw	t0,72(sp)
80000148:	afa90044 	sw	t1,68(sp)
8000014c:	afaa0040 	sw	t2,64(sp)
80000150:	afab003c 	sw	t3,60(sp)
80000154:	afac0038 	sw	t4,56(sp)
80000158:	afad0034 	sw	t5,52(sp)
8000015c:	afae0030 	sw	t6,48(sp)
80000160:	afaf002c 	sw	t7,44(sp)
80000164:	afb00028 	sw	s0,40(sp)
80000168:	afb10024 	sw	s1,36(sp)
8000016c:	afb20020 	sw	s2,32(sp)
80000170:	afb3001c 	sw	s3,28(sp)
80000174:	afb40018 	sw	s4,24(sp)
80000178:	afb50014 	sw	s5,20(sp)
8000017c:	afb60010 	sw	s6,16(sp)
80000180:	afb7000c 	sw	s7,12(sp)
80000184:	afb80008 	sw	t8,8(sp)
80000188:	afb90004 	sw	t9,4(sp)
8000018c:	afbf0000 	sw	ra,0(sp)
80000190:	3c1a8000 	lui	k0,0x8000
80000194:	275a1000 	addiu	k0,k0,4096
80000198:	8f5a0000 	lw	k0,0(k0)
8000019c:	3c1b8000 	lui	k1,0x8000
800001a0:	277b1004 	addiu	k1,k1,4100
800001a4:	00000000 	nop
800001a8:	135b000c 	beq	k0,k1,800001dc <store_pcb2>
800001ac:	00000000 	nop
800001b0:	3c1b8000 	lui	k1,0x8000
800001b4:	277b1010 	addiu	k1,k1,4112
800001b8:	135b000f 	beq	k0,k1,800001f8 <store_pcb3>
800001bc:	00000000 	nop

800001c0 <store_pcb1>:
800001c0:	3c1a8000 	lui	k0,0x8000
800001c4:	275a1000 	addiu	k0,k0,4096
800001c8:	3c1b8000 	lui	k1,0x8000
800001cc:	277b1004 	addiu	k1,k1,4100
800001d0:	af5b0000 	sw	k1,0(k0)
800001d4:	1000000f 	b	80000214 <restore_stack>
800001d8:	00000000 	nop

800001dc <store_pcb2>:
800001dc:	3c1a8000 	lui	k0,0x8000
800001e0:	275a1000 	addiu	k0,k0,4096
800001e4:	3c1b8000 	lui	k1,0x8000
800001e8:	277b1010 	addiu	k1,k1,4112
800001ec:	af5b0000 	sw	k1,0(k0)
800001f0:	10000008 	b	80000214 <restore_stack>
800001f4:	00000000 	nop

800001f8 <store_pcb3>:
800001f8:	3c1a8000 	lui	k0,0x8000
800001fc:	275a1000 	addiu	k0,k0,4096
80000200:	3c1b8000 	lui	k1,0x8000
80000204:	277b101c 	addiu	k1,k1,4124
80000208:	af5b0000 	sw	k1,0(k0)
8000020c:	10000001 	b	80000214 <restore_stack>
80000210:	00000000 	nop

80000214 <restore_stack>:
80000214:	8f7d0008 	lw	sp,8(k1)
80000218:	8f7a0000 	lw	k0,0(k1)
8000021c:	8f7c0004 	lw	gp,4(k1)
80000220:	8fa10064 	lw	at,100(sp)
80000224:	8fa20060 	lw	v0,96(sp)
80000228:	8fa3005c 	lw	v1,92(sp)
8000022c:	8fa40058 	lw	a0,88(sp)
80000230:	8fa50054 	lw	a1,84(sp)
80000234:	8fa60050 	lw	a2,80(sp)
80000238:	8fa7004c 	lw	a3,76(sp)
8000023c:	8fa80048 	lw	t0,72(sp)
80000240:	8fa90044 	lw	t1,68(sp)
80000244:	8faa0040 	lw	t2,64(sp)
80000248:	8fab003c 	lw	t3,60(sp)
8000024c:	8fac0038 	lw	t4,56(sp)
80000250:	8fad0034 	lw	t5,52(sp)
80000254:	8fae0030 	lw	t6,48(sp)
80000258:	8faf002c 	lw	t7,44(sp)
8000025c:	8fb00028 	lw	s0,40(sp)
80000260:	8fb10024 	lw	s1,36(sp)
80000264:	8fb20020 	lw	s2,32(sp)
80000268:	8fb3001c 	lw	s3,28(sp)
8000026c:	8fb40018 	lw	s4,24(sp)
80000270:	8fb50014 	lw	s5,20(sp)
80000274:	8fb60010 	lw	s6,16(sp)
80000278:	8fb7000c 	lw	s7,12(sp)
8000027c:	8fb80008 	lw	t8,8(sp)
80000280:	8fb90004 	lw	t9,4(sp)
80000284:	8fbf0000 	lw	ra,0(sp)
80000288:	03400008 	jr	k0
8000028c:	42000010 	rfe

80000290 <kernel_loop>:
80000290:	1000ffff 	b	80000290 <kernel_loop>
80000294:	00000000 	nop
